; ModuleID = '4/1589.c'
source_filename = "4/1589.c"
target datalayout = "e-m:e-p270:32:32-p271:32:32-p272:64:64-i64:64-f80:128-n8:16:32:64-S128"
target triple = "x86_64-pc-linux-gnu"

@.str = private unnamed_addr constant [5 x i8] c"%d%d\00", align 1
@.str.1 = private unnamed_addr constant [3 x i8] c"%d\00", align 1
@.str.2 = private unnamed_addr constant [4 x i8] c"%d\0A\00", align 1

; Function Attrs: noinline nounwind uwtable
define dso_local void @main() #0 {
  %1 = alloca i32, align 4
  %2 = alloca i32, align 4
  %3 = alloca i32*, align 8
  %4 = alloca i32*, align 8
  %5 = alloca i32, align 4
  %6 = alloca i32, align 4
  %7 = alloca i32, align 4
  %8 = call i32 (i8*, ...) @__isoc99_scanf(i8* getelementptr inbounds ([5 x i8], [5 x i8]* @.str, i64 0, i64 0), i32* %1, i32* %2)
  %9 = load i32, i32* %1, align 4
  %10 = sext i32 %9 to i64
  %11 = load i32, i32* %2, align 4
  %12 = sext i32 %11 to i64
  %13 = mul i64 %12, 4
  %14 = call noalias i8* @calloc(i64 %10, i64 %13) #3
  %15 = bitcast i8* %14 to i32*
  store i32* %15, i32** %3, align 8
  %16 = load i32*, i32** %3, align 8
  store i32* %16, i32** %4, align 8
  br label %17

17:                                               ; preds = %30, %0
  %18 = load i32*, i32** %4, align 8
  %19 = load i32*, i32** %3, align 8
  %20 = load i32, i32* %1, align 4
  %21 = load i32, i32* %2, align 4
  %22 = mul nsw i32 %20, %21
  %23 = sext i32 %22 to i64
  %24 = getelementptr inbounds i32, i32* %19, i64 %23
  %25 = getelementptr inbounds i32, i32* %24, i64 -1
  %26 = icmp ule i32* %18, %25
  br i1 %26, label %27, label %33

27:                                               ; preds = %17
  %28 = load i32*, i32** %4, align 8
  %29 = call i32 (i8*, ...) @__isoc99_scanf(i8* getelementptr inbounds ([3 x i8], [3 x i8]* @.str.1, i64 0, i64 0), i32* %28)
  br label %30

30:                                               ; preds = %27
  %31 = load i32*, i32** %4, align 8
  %32 = getelementptr inbounds i32, i32* %31, i32 1
  store i32* %32, i32** %4, align 8
  br label %17

33:                                               ; preds = %17
  store i32 0, i32* %7, align 4
  br label %34

34:                                               ; preds = %79, %33
  %35 = load i32, i32* %7, align 4
  %36 = load i32, i32* %1, align 4
  %37 = load i32, i32* %2, align 4
  %38 = add nsw i32 %36, %37
  %39 = sub nsw i32 %38, 2
  %40 = icmp sle i32 %35, %39
  br i1 %40, label %41, label %82

41:                                               ; preds = %34
  store i32 0, i32* %5, align 4
  br label %42

42:                                               ; preds = %75, %41
  %43 = load i32, i32* %5, align 4
  %44 = load i32, i32* %7, align 4
  %45 = icmp sle i32 %43, %44
  br i1 %45, label %46, label %78

46:                                               ; preds = %42
  %47 = load i32, i32* %5, align 4
  %48 = load i32, i32* %1, align 4
  %49 = sub nsw i32 %48, 1
  %50 = icmp sgt i32 %47, %49
  br i1 %50, label %58, label %51

51:                                               ; preds = %46
  %52 = load i32, i32* %7, align 4
  %53 = load i32, i32* %5, align 4
  %54 = sub nsw i32 %52, %53
  %55 = load i32, i32* %2, align 4
  %56 = sub nsw i32 %55, 1
  %57 = icmp sgt i32 %54, %56
  br i1 %57, label %58, label %59

58:                                               ; preds = %51, %46
  br label %75

59:                                               ; preds = %51
  %60 = load i32*, i32** %3, align 8
  %61 = load i32, i32* %5, align 4
  %62 = load i32, i32* %2, align 4
  %63 = mul nsw i32 %61, %62
  %64 = sext i32 %63 to i64
  %65 = getelementptr inbounds i32, i32* %60, i64 %64
  %66 = load i32, i32* %7, align 4
  %67 = sext i32 %66 to i64
  %68 = getelementptr inbounds i32, i32* %65, i64 %67
  %69 = load i32, i32* %5, align 4
  %70 = sext i32 %69 to i64
  %71 = sub i64 0, %70
  %72 = getelementptr inbounds i32, i32* %68, i64 %71
  %73 = load i32, i32* %72, align 4
  %74 = call i32 (i8*, ...) @printf(i8* getelementptr inbounds ([4 x i8], [4 x i8]* @.str.2, i64 0, i64 0), i32 %73)
  br label %75

75:                                               ; preds = %59, %58
  %76 = load i32, i32* %5, align 4
  %77 = add nsw i32 %76, 1
  store i32 %77, i32* %5, align 4
  br label %42

78:                                               ; preds = %42
  br label %79

79:                                               ; preds = %78
  %80 = load i32, i32* %7, align 4
  %81 = add nsw i32 %80, 1
  store i32 %81, i32* %7, align 4
  br label %34

82:                                               ; preds = %34
  ret void
}

declare dso_local i32 @__isoc99_scanf(i8*, ...) #1

; Function Attrs: nounwind
declare dso_local noalias i8* @calloc(i64, i64) #2

declare dso_local i32 @printf(i8*, ...) #1


!llvm.module.flags = !{!0}
!llvm.ident = !{!1}

!0 = !{i32 1, !"wchar_size", i32 4}
!1 = !{!"clang version 10.0.0-4ubuntu1 "}
